target datalayout = "e-m:e-p270:32:32-p271:32:32-p272:64:64-i64:64-i128:128-f80:128-n8:16:32:64-S128"
target triple = "x86_64-pc-linux-gnu"

%struct._lv_global_t = type { i8, i8, %struct.lv_ll_t, ptr, ptr, %struct.lv_ll_t, i8, i32, i32, ptr, %struct.lv_ll_t, ptr, %struct.lv_ll_t, ptr, ptr, i32, ptr, i8, i32, i32, ptr, i32, %struct.lv_timer_state_t, %struct.lv_anim_state_t, %struct.lv_tick_state_t, %struct._lv_draw_buf_handlers_t, %struct._lv_draw_buf_handlers_t, %struct._lv_draw_buf_handlers_t, %struct.lv_ll_t, ptr, ptr, %struct.lv_draw_global_info_t, [4 x %struct.lv_draw_sw_mask_radius_circle_dsc_t], ptr, ptr, ptr, %struct.lv_tlsf_state_t, %struct.lv_ll_t, ptr, ptr, %struct.lv_style_t, i64, ptr, i32, ptr }
%struct.lv_timer_state_t = type { %struct.lv_ll_t, i8, i8, i8, i8, i32, i8, i32, i32, i32, i32, ptr, ptr }
%struct.lv_anim_state_t = type { i8, i8, ptr, %struct.lv_ll_t }
%struct.lv_tick_state_t = type { i32, i8, ptr, ptr }
%struct._lv_draw_buf_handlers_t = type { ptr, ptr, ptr, ptr, ptr, ptr }
%struct.lv_draw_global_info_t = type { ptr, i32, i32, i32, i32, i8 }
%struct.lv_draw_sw_mask_radius_circle_dsc_t = type { ptr, ptr, ptr, ptr, i32, i32, i32 }
%struct.lv_tlsf_state_t = type { ptr, i64, i64, %struct.lv_ll_t }
%struct.lv_ll_t = type { i32, ptr, ptr }
%struct.lv_style_t = type { ptr, i32, i8 }
%struct._lv_ime_pinyin_t = type { %struct._lv_obj_t, ptr, ptr, ptr, %struct.lv_ll_t, ptr, [16 x i8], [8 x i8], i16, i16, i16, i16, i16, i16, [26 x i16], [26 x i16], i32 }
%struct._lv_obj_t = type { ptr, ptr, ptr, ptr, ptr, %struct.lv_area_t, i32, i16, i16 }
%struct.lv_area_t = type { i32, i32, i32, i32 }
%struct.ime_pinyin_k9_py_str_t = type { [7 x i8] }

@.str.18 = private unnamed_addr constant [2 x i8] zeroinitializer, align 1
@lv_pinyin_k9_cand_str = internal global [5 x [7 x i8]] zeroinitializer, align 16
@.str.659 = private unnamed_addr constant [2 x i8] c" \00", align 1
@.str.660 = private unnamed_addr constant [5 x i8] c"\EF\81\94\00\00", align 1
@lv_global = external global %struct._lv_global_t, align 8

; Function Attrs: inlinehint nounwind uwtable
define internal void @lv_memzero(ptr noundef %0, i64 noundef %1) #3 {
  %3 = alloca ptr, align 8
  %4 = alloca i64, align 8
  store ptr %0, ptr %3, align 8, !tbaa !41
  store i64 %1, ptr %4, align 8, !tbaa !47
  %5 = load ptr, ptr %3, align 8, !tbaa !41
  %6 = load i64, ptr %4, align 8, !tbaa !47
  call void @lv_memset(ptr noundef %5, i8 noundef zeroext 0, i64 noundef %6)
  ret void
}

; Function Attrs: nounwind uwtable
define internal void @pinyin_k9_fill_cand(ptr noundef %0) #0 {
  %2 = alloca ptr, align 8
  %3 = alloca i16, align 2
  %4 = alloca i16, align 2
  %5 = alloca ptr, align 8
  %6 = alloca ptr, align 8
  %7 = alloca i8, align 1
  %8 = alloca ptr, align 8
  store ptr %0, ptr %2, align 8, !tbaa !8
  call void @llvm.lifetime.start.p0(i64 2, ptr %3) #6
  store i16 0, ptr %3, align 2, !tbaa !12
  call void @llvm.lifetime.start.p0(i64 2, ptr %4) #6
  store i16 0, ptr %4, align 2, !tbaa !12
  call void @llvm.lifetime.start.p0(i64 8, ptr %5) #6
  store ptr null, ptr %5, align 8, !tbaa !41
  call void @llvm.lifetime.start.p0(i64 8, ptr %6) #6
  %9 = load ptr, ptr %2, align 8, !tbaa !8
  store ptr %9, ptr %6, align 8, !tbaa !10
  %10 = load ptr, ptr %6, align 8, !tbaa !10
  %11 = getelementptr inbounds nuw %struct._lv_ime_pinyin_t, ptr %10, i32 0, i32 9
  %12 = load i16, ptr %11, align 2, !tbaa !33
  store i16 %12, ptr %4, align 2, !tbaa !12
  %13 = load i16, ptr %4, align 2, !tbaa !12
  %14 = zext i16 %13 to i64
  %15 = load i64, ptr getelementptr inbounds nuw (%struct._lv_global_t, ptr @lv_global, i32 0, i32 41), align 8, !tbaa !64
  %16 = icmp ne i64 %14, %15
  br i1 %16, label %17, label %22

17:                                               ; preds = %1
  call void @lv_memzero(ptr noundef @lv_pinyin_k9_cand_str, i64 noundef 35)
  %18 = call ptr @lv_strcpy(ptr noundef getelementptr inbounds ([5 x [7 x i8]], ptr @lv_pinyin_k9_cand_str, i64 0, i64 3), ptr noundef @.str.660)
  %19 = call ptr @lv_strcpy(ptr noundef getelementptr inbounds ([5 x [7 x i8]], ptr @lv_pinyin_k9_cand_str, i64 0, i64 4), ptr noundef @.str.18)
  %20 = load i16, ptr %4, align 2, !tbaa !12
  %21 = zext i16 %20 to i64
  store i64 %21, ptr getelementptr inbounds nuw (%struct._lv_global_t, ptr @lv_global, i32 0, i32 41), align 8, !tbaa !64
  br label %22

22:                                               ; preds = %17, %1
  %23 = load ptr, ptr %6, align 8, !tbaa !10
  %24 = getelementptr inbounds nuw %struct._lv_ime_pinyin_t, ptr %23, i32 0, i32 4
  %25 = call ptr @lv_ll_get_head(ptr noundef %24)
  store ptr %25, ptr %5, align 8, !tbaa !41
  %26 = load ptr, ptr %6, align 8, !tbaa !10
  %27 = getelementptr inbounds nuw %struct._lv_ime_pinyin_t, ptr %26, i32 0, i32 6
  %28 = getelementptr inbounds [16 x i8], ptr %27, i64 0, i64 0
  %29 = load ptr, ptr %5, align 8, !tbaa !41
  %30 = getelementptr inbounds nuw %struct.ime_pinyin_k9_py_str_t, ptr %29, i32 0, i32 0
  %31 = getelementptr inbounds [7 x i8], ptr %30, i64 0, i64 0
  %32 = call ptr @lv_strcpy(ptr noundef %28, ptr noundef %31)
  call void @llvm.lifetime.start.p0(i64 1, ptr %7) #6
  store i8 0, ptr %7, align 1, !tbaa !16
  br label %33

33:                                               ; preds = %44, %22
  %34 = load i8, ptr %7, align 1, !tbaa !16
  %35 = zext i8 %34 to i32
  %36 = icmp slt i32 %35, 3
  br i1 %36, label %38, label %37

37:                                               ; preds = %33
  call void @llvm.lifetime.end.p0(i64 1, ptr %7) #6
  br label %47

38:                                               ; preds = %33
  %39 = load i8, ptr %7, align 1, !tbaa !16
  %40 = zext i8 %39 to i64
  %41 = getelementptr inbounds nuw [5 x [7 x i8]], ptr @lv_pinyin_k9_cand_str, i64 0, i64 %40
  %42 = getelementptr inbounds [7 x i8], ptr %41, i64 0, i64 0
  %43 = call ptr @lv_strcpy(ptr noundef %42, ptr noundef @.str.659)
  br label %44

44:                                               ; preds = %38
  %45 = load i8, ptr %7, align 1, !tbaa !16
  %46 = add i8 %45, 1
  store i8 %46, ptr %7, align 1, !tbaa !16
  br label %33, !llvm.loop !82

47:                                               ; preds = %37
  br label %48

48:                                               ; preds = %73, %47
  %49 = load ptr, ptr %5, align 8, !tbaa !41
  %50 = icmp ne ptr %49, null
  br i1 %50, label %51, label %80

51:                                               ; preds = %48
  %52 = load i16, ptr %3, align 2, !tbaa !12
  %53 = zext i16 %52 to i32
  %54 = icmp sge i32 %53, 3
  br i1 %54, label %55, label %56

55:                                               ; preds = %51
  br label %80

56:                                               ; preds = %51
  %57 = load i16, ptr %3, align 2, !tbaa !12
  %58 = zext i16 %57 to i32
  %59 = load ptr, ptr %6, align 8, !tbaa !10
  %60 = getelementptr inbounds nuw %struct._lv_ime_pinyin_t, ptr %59, i32 0, i32 9
  %61 = load i16, ptr %60, align 2, !tbaa !33
  %62 = zext i16 %61 to i32
  %63 = icmp slt i32 %58, %62
  br i1 %63, label %64, label %73

64:                                               ; preds = %56
  %65 = load i16, ptr %3, align 2, !tbaa !12
  %66 = zext i16 %65 to i64
  %67 = getelementptr inbounds nuw [5 x [7 x i8]], ptr @lv_pinyin_k9_cand_str, i64 0, i64 %66
  %68 = getelementptr inbounds [7 x i8], ptr %67, i64 0, i64 0
  %69 = load ptr, ptr %5, align 8, !tbaa !41
  %70 = getelementptr inbounds nuw %struct.ime_pinyin_k9_py_str_t, ptr %69, i32 0, i32 0
  %71 = getelementptr inbounds [7 x i8], ptr %70, i64 0, i64 0
  %72 = call ptr @lv_strcpy(ptr noundef %68, ptr noundef %71)
  br label %73

73:                                               ; preds = %64, %56
  %74 = load ptr, ptr %6, align 8, !tbaa !10
  %75 = getelementptr inbounds nuw %struct._lv_ime_pinyin_t, ptr %74, i32 0, i32 4
  %76 = load ptr, ptr %5, align 8, !tbaa !41
  %77 = call ptr @lv_ll_get_next(ptr noundef %75, ptr noundef %76)
  store ptr %77, ptr %5, align 8, !tbaa !41
  %78 = load i16, ptr %3, align 2, !tbaa !12
  %79 = add i16 %78, 1
  store i16 %79, ptr %3, align 2, !tbaa !12
  br label %48, !llvm.loop !83

80:                                               ; preds = %55, %48
  %81 = load i16, ptr %3, align 2, !tbaa !12
  %82 = load ptr, ptr %6, align 8, !tbaa !10
  %83 = getelementptr inbounds nuw %struct._lv_ime_pinyin_t, ptr %82, i32 0, i32 8
  store i16 %81, ptr %83, align 8, !tbaa !32
  call void @llvm.lifetime.start.p0(i64 8, ptr %8) #6
  %84 = load ptr, ptr %6, align 8, !tbaa !10
  %85 = getelementptr inbounds nuw %struct._lv_ime_pinyin_t, ptr %84, i32 0, i32 1
  %86 = load ptr, ptr %85, align 8, !tbaa !34
  %87 = call ptr @lv_keyboard_get_textarea(ptr noundef %86)
  store ptr %87, ptr %8, align 8, !tbaa !8
  store i16 0, ptr %3, align 2, !tbaa !12
  br label %88

88:                                               ; preds = %98, %80
  %89 = load i16, ptr %3, align 2, !tbaa !12
  %90 = zext i16 %89 to i32
  %91 = load ptr, ptr %6, align 8, !tbaa !10
  %92 = getelementptr inbounds nuw %struct._lv_ime_pinyin_t, ptr %91, i32 0, i32 10
  %93 = load i16, ptr %92, align 4, !tbaa !31
  %94 = zext i16 %93 to i32
  %95 = icmp slt i32 %90, %94
  br i1 %95, label %96, label %101

96:                                               ; preds = %88
  %97 = load ptr, ptr %8, align 8, !tbaa !8
  call void @lv_textarea_delete_char(ptr noundef %97)
  br label %98

98:                                               ; preds = %96
  %99 = load i16, ptr %3, align 2, !tbaa !12
  %100 = add i16 %99, 1
  store i16 %100, ptr %3, align 2, !tbaa !12
  br label %88, !llvm.loop !84

101:                                              ; preds = %88
  %102 = load ptr, ptr %6, align 8, !tbaa !10
  %103 = getelementptr inbounds nuw %struct._lv_ime_pinyin_t, ptr %102, i32 0, i32 6
  %104 = getelementptr inbounds [16 x i8], ptr %103, i64 0, i64 0
  %105 = call i64 @lv_strlen(ptr noundef %104)
  %106 = trunc i64 %105 to i16
  %107 = load ptr, ptr %6, align 8, !tbaa !10
  %108 = getelementptr inbounds nuw %struct._lv_ime_pinyin_t, ptr %107, i32 0, i32 10
  store i16 %106, ptr %108, align 4, !tbaa !31
  %109 = load ptr, ptr %8, align 8, !tbaa !8
  %110 = load ptr, ptr %6, align 8, !tbaa !10
  %111 = getelementptr inbounds nuw %struct._lv_ime_pinyin_t, ptr %110, i32 0, i32 6
  %112 = getelementptr inbounds [16 x i8], ptr %111, i64 0, i64 0
  call void @lv_textarea_add_text(ptr noundef %109, ptr noundef %112)
  call void @llvm.lifetime.end.p0(i64 8, ptr %8) #6
  call void @llvm.lifetime.end.p0(i64 8, ptr %6) #6
  call void @llvm.lifetime.end.p0(i64 8, ptr %5) #6
  call void @llvm.lifetime.end.p0(i64 2, ptr %4) #6
  call void @llvm.lifetime.end.p0(i64 2, ptr %3) #6
  ret void
}