; Function Attrs: nounwind uwtable
define internal fastcc void @pinyin_k9_fill_cand(ptr noundef %0) unnamed_addr #0 {
  %2 = getelementptr inbounds nuw i8, ptr %0, i64 146
  %3 = load i16, ptr %2, align 2, !tbaa !33
  %4 = zext i16 %3 to i64
  %5 = load i64, ptr getelementptr inbounds nuw (i8, ptr @lv_global, i64 888), align 8, !tbaa !55
  %.not = icmp eq i64 %5, %4
  br i1 %.not, label %9, label %6

6:                                                ; preds = %1
  tail call void @lv_memset(ptr noundef nonnull @lv_pinyin_k9_cand_str, i8 noundef zeroext 0, i64 noundef 35) #6
  %7 = tail call ptr @lv_strcpy(ptr noundef nonnull getelementptr inbounds nuw (i8, ptr @lv_pinyin_k9_cand_str, i64 21), ptr noundef nonnull @.str.660) #6
  %8 = tail call ptr @lv_strcpy(ptr noundef nonnull getelementptr inbounds nuw (i8, ptr @lv_pinyin_k9_cand_str, i64 28), ptr noundef nonnull @.str.18) #6
  store i64 %4, ptr getelementptr inbounds nuw (i8, ptr @lv_global, i64 888), align 8, !tbaa !55
  br label %9

9:                                                ; preds = %6, %1
  %10 = getelementptr inbounds nuw i8, ptr %0, i64 88
  %11 = tail call ptr @lv_ll_get_head(ptr noundef nonnull %10) #6
  %12 = getelementptr inbounds nuw i8, ptr %0, i64 120
  %13 = tail call ptr @lv_strcpy(ptr noundef nonnull %12, ptr noundef %11) #6
  br label %15

.preheader:                                       ; preds = %15
  %14 = icmp eq ptr %11, null
  br i1 %14, label %._crit_edge, label %.lr.ph

15:                                               ; preds = %9, %15
  %indvars.iv = phi i64 [ 0, %9 ], [ %indvars.iv.next, %15 ]
  %16 = getelementptr inbounds nuw [5 x [7 x i8]], ptr @lv_pinyin_k9_cand_str, i64 0, i64 %indvars.iv
  %17 = tail call ptr @lv_strcpy(ptr noundef nonnull %16, ptr noundef nonnull @.str.659) #6
  %indvars.iv.next = add nuw nsw i64 %indvars.iv, 1
  %exitcond.not = icmp eq i64 %indvars.iv.next, 3
  br i1 %exitcond.not, label %.preheader, label %15, !llvm.loop !75

.lr.ph:                                           ; preds = %.preheader, %24
  %indvars.iv44 = phi i64 [ %indvars.iv.next45, %24 ], [ 0, %.preheader ]
  %.03236 = phi ptr [ %25, %24 ], [ %11, %.preheader ]
  %18 = load i16, ptr %2, align 2, !tbaa !33
  %19 = zext i16 %18 to i64
  %20 = icmp samesign ult i64 %indvars.iv44, %19
  br i1 %20, label %21, label %24

21:                                               ; preds = %.lr.ph
  %22 = getelementptr inbounds nuw [5 x [7 x i8]], ptr @lv_pinyin_k9_cand_str, i64 0, i64 %indvars.iv44
  %23 = tail call ptr @lv_strcpy(ptr noundef nonnull %22, ptr noundef nonnull %.03236) #6
  br label %24

24:                                               ; preds = %21, %.lr.ph
  %25 = tail call ptr @lv_ll_get_next(ptr noundef nonnull %10, ptr noundef nonnull %.03236) #6
  %indvars.iv.next45 = add nuw nsw i64 %indvars.iv44, 1
  %26 = icmp eq ptr %25, null
  %27 = icmp samesign ugt i64 %indvars.iv44, 1
  %or.cond = select i1 %26, i1 true, i1 %27
  br i1 %or.cond, label %._crit_edge.loopexit, label %.lr.ph, !llvm.loop !76

._crit_edge.loopexit:                             ; preds = %24
  %28 = trunc nuw nsw i64 %indvars.iv.next45 to i16
  br label %._crit_edge

._crit_edge:                                      ; preds = %._crit_edge.loopexit, %.preheader
  %.0.lcssa = phi i16 [ 0, %.preheader ], [ %28, %._crit_edge.loopexit ]
  %29 = getelementptr inbounds nuw i8, ptr %0, i64 144
  store i16 %.0.lcssa, ptr %29, align 8, !tbaa !32
  %30 = getelementptr inbounds nuw i8, ptr %0, i64 64
  %31 = load ptr, ptr %30, align 8, !tbaa !36
  %32 = tail call ptr @lv_keyboard_get_textarea(ptr noundef %31) #6
  %33 = getelementptr inbounds nuw i8, ptr %0, i64 148
  %34 = load i16, ptr %33, align 4, !tbaa !31
  %.not42 = icmp eq i16 %34, 0
  br i1 %.not42, label %._crit_edge41, label %.lr.ph40

.lr.ph40:                                         ; preds = %._crit_edge, %.lr.ph40
  %.138 = phi i16 [ %35, %.lr.ph40 ], [ 0, %._crit_edge ]
  tail call void @lv_textarea_delete_char(ptr noundef %32) #6
  %35 = add nuw i16 %.138, 1
  %36 = load i16, ptr %33, align 4, !tbaa !31
  %37 = icmp ult i16 %35, %36
  br i1 %37, label %.lr.ph40, label %._crit_edge41, !llvm.loop !77

._crit_edge41:                                    ; preds = %.lr.ph40, %._crit_edge
  %38 = tail call i64 @lv_strlen(ptr noundef nonnull %12) #6
  %39 = trunc i64 %38 to i16
  store i16 %39, ptr %33, align 4, !tbaa !31
  tail call void @lv_textarea_add_text(ptr noundef %32, ptr noundef nonnull %12) #6
  ret void
}